target datalayout = "e-m:e-p270:32:32-p271:32:32-p272:64:64-i64:64-i128:128-f80:128-n8:16:32:64-S128"
target triple = "x86_64-pc-linux-gnu"

%struct.pg_enc2name = type { ptr, i32 }
%struct.pg_wchar_tbl = type { ptr, ptr, ptr, ptr, ptr, ptr, i32 }

@DatabaseEncoding = internal global ptr @pg_enc2name_tbl, align 8
@pg_wchar_table = external constant [0 x %struct.pg_wchar_tbl], align 8

; Function Attrs: nounwind uwtable
define dso_local i32 @pg_wchar2mb(ptr noundef %0, ptr noundef %1) #1 {
  %3 = alloca ptr, align 8
  %4 = alloca ptr, align 8
  store ptr %0, ptr %3, align 8
  store ptr %1, ptr %4, align 8
  %5 = load ptr, ptr @DatabaseEncoding, align 8
  %6 = getelementptr inbounds nuw %struct.pg_enc2name, ptr %5, i32 0, i32 1
  %7 = load i32, ptr %6, align 8
  %8 = zext i32 %7 to i64
  %9 = getelementptr inbounds nuw [0 x %struct.pg_wchar_tbl], ptr @pg_wchar_table, i64 0, i64 %8
  %10 = getelementptr inbounds nuw %struct.pg_wchar_tbl, ptr %9, i32 0, i32 1
  %11 = load ptr, ptr %10, align 8
  %12 = load ptr, ptr %3, align 8
  %13 = load ptr, ptr %4, align 8
  %14 = load ptr, ptr %3, align 8
  %15 = call i64 @pg_wchar_strlen(ptr noundef %14)
  %16 = trunc i64 %15 to i32
  %17 = call i32 %11(ptr noundef %12, ptr noundef %13, i32 noundef %16)
  ret i32 %17
}