; Function Attrs: nounwind uwtable
define dso_local i32 @pg_wchar2mb(ptr noundef %0, ptr noundef %1) local_unnamed_addr #0 {
  %3 = load ptr, ptr @DatabaseEncoding, align 8
  %4 = getelementptr inbounds nuw i8, ptr %3, i64 8
  %5 = load i32, ptr %4, align 8
  %6 = zext i32 %5 to i64
  %7 = getelementptr inbounds nuw [0 x %struct.pg_wchar_tbl], ptr @pg_wchar_table, i64 0, i64 %6, i32 1
  %8 = load ptr, ptr %7, align 8
  %9 = tail call i64 @pg_wchar_strlen(ptr noundef %0) #13
  %10 = trunc i64 %9 to i32
  %11 = tail call i32 %8(ptr noundef %0, ptr noundef %1, i32 noundef %10) #13
  ret i32 %11
}